; Function Attrs: mustprogress uwtable
define noundef float @_Z19calculateSimpleBondiiPKiPK9t_iparamsPA3_KfPA4_fPA3_fPK5t_pbcfPfN3gmx8ArrayRefIS4_EEP8t_fcdataP12t_disresdataP12t_oriresdataPi18BondedKernelFlavor(i32 noundef %0, i32 noundef %1, ptr noundef %2, ptr noundef %3, ptr noundef %4, ptr noundef %5, ptr noundef %6, ptr noundef %7, float noundef %8, ptr noundef %9, ptr nocapture noundef readonly byval(%"class.gmx::ArrayRef") align 8 %10, ptr noundef %11, ptr noundef %12, ptr noundef %13, ptr noundef %14, i32 noundef %15) local_unnamed_addr #4 {
  %17 = alloca %"class.gmx::ArrayRef", align 8
  %18 = sext i32 %15 to i64
  %19 = getelementptr inbounds [4 x %"struct.std::array.43"], ptr @_ZN12_GLOBAL__N_137c_bondedInteractionFunctionsPerFlavorE, i64 0, i64 %18
  %20 = sext i32 %0 to i64
  %21 = getelementptr inbounds [94 x %"struct.(anonymous namespace)::BondedInteractions"], ptr %19, i64 0, i64 %20
  %22 = load ptr, ptr %21, align 8
  %23 = load ptr, ptr %10, align 8
  store ptr %23, ptr %17, align 8
  %24 = getelementptr inbounds i8, ptr %17, i64 8
  %25 = getelementptr inbounds i8, ptr %10, i64 8
  %26 = load ptr, ptr %25, align 8
  %27 = ptrtoint ptr %26 to i64
  %28 = ptrtoint ptr %23 to i64
  %29 = sub i64 %27, %28
  %30 = getelementptr inbounds i8, ptr %23, i64 %29
  store ptr %30, ptr %24, align 8
  %31 = tail call noundef float %22(i32 noundef %1, ptr noundef %2, ptr noundef %3, ptr noundef %4, ptr noundef %5, ptr noundef %6, ptr noundef %7, float noundef %8, ptr noundef %9, ptr noundef nonnull byval(%"class.gmx::ArrayRef") align 8 %17, ptr noundef %11, ptr noundef %12, ptr noundef %13, ptr noundef %14)
  ret float %31
}